TN:
SF:/usr/include/c++/11/iostream
end_of_record
SF:/usr/include/c++/11/bits/stl_algobase.h
FN:230,_ZSt3minImERKT_S2_S2_
FNDA:4,_ZSt3minImERKT_S2_S2_
FN:254,_ZSt3maxImERKT_S2_S2_
FNDA:1,_ZSt3maxImERKT_S2_S2_
FN:313,_ZSt12__niter_baseIPPiET_S2_
FNDA:0,_ZSt12__niter_baseIPPiET_S2_
FN:313,_ZSt12__niter_baseIPiET_S1_
FNDA:0,_ZSt12__niter_baseIPiET_S1_
FN:313,_ZSt12__niter_baseIPNSt7__cxx114listIiSaIiEEEET_S5_
FNDA:3,_ZSt12__niter_baseIPNSt7__cxx114listIiSaIiEEEET_S5_
FN:335,_ZSt12__niter_wrapIPPiET_RKS2_S2_
FNDA:0,_ZSt12__niter_wrapIPPiET_RKS2_S2_
FN:420,_ZNSt11__copy_moveILb0ELb1ESt26random_access_iterator_tagE8__copy_mIPiEEPT_PKS4_S7_S5_
FNDA:0,_ZNSt11__copy_moveILb0ELb1ESt26random_access_iterator_tagE8__copy_mIPiEEPT_PKS4_S7_S5_
FN:486,_ZSt14__copy_move_a2ILb0EPPiS1_ET1_T0_S3_S2_
FNDA:0,_ZSt14__copy_move_a2ILb0EPPiS1_ET1_T0_S3_S2_
FN:521,_ZSt14__copy_move_a1ILb0EPPiS1_ET1_T0_S3_S2_
FNDA:0,_ZSt14__copy_move_a1ILb0EPPiS1_ET1_T0_S3_S2_
FN:527,_ZSt13__copy_move_aILb0EPPiS1_ET1_T0_S3_S2_
FNDA:0,_ZSt13__copy_move_aILb0EPPiS1_ET1_T0_S3_S2_
FN:611,_ZSt4copyIPPiS1_ET0_T_S3_S2_
FNDA:0,_ZSt4copyIPPiS1_ET0_T_S3_S2_
FN:731,_ZNSt20__copy_move_backwardILb0ELb1ESt26random_access_iterator_tagE13__copy_move_bIPiEEPT_PKS4_S7_S5_
FNDA:0,_ZNSt20__copy_move_backwardILb0ELb1ESt26random_access_iterator_tagE13__copy_move_bIPiEEPT_PKS4_S7_S5_
FN:750,_ZSt23__copy_move_backward_a2ILb0EPPiS1_ET1_T0_S3_S2_
FNDA:0,_ZSt23__copy_move_backward_a2ILb0EPPiS1_ET1_T0_S3_S2_
FN:768,_ZSt23__copy_move_backward_a1ILb0EPPiS1_ET1_T0_S3_S2_
FNDA:0,_ZSt23__copy_move_backward_a1ILb0EPPiS1_ET1_T0_S3_S2_
FN:796,_ZSt22__copy_move_backward_aILb0EPPiS1_ET1_T0_S3_S2_
FNDA:0,_ZSt22__copy_move_backward_aILb0EPPiS1_ET1_T0_S3_S2_
FN:848,_ZSt13copy_backwardIPPiS1_ET0_T_S3_S2_
FNDA:0,_ZSt13copy_backwardIPPiS1_ET0_T_S3_S2_
DA:230,4
DA:235,4
DA:236,0
DA:237,4
DA:254,1
DA:259,1
DA:260,1
DA:261,0
DA:313,0
DA:315,0
DA:313,0
DA:315,0
DA:313,3
DA:315,3
DA:335,0
DA:336,0
DA:420,0
DA:429,0
DA:430,0
DA:431,0
DA:432,0
DA:486,0
DA:495,0
DA:521,0
DA:522,0
DA:527,0
DA:529,0
DA:532,0
DA:611,0
DA:620,0
DA:731,0
DA:740,0
DA:741,0
DA:742,0
DA:743,0
DA:750,0
DA:760,0
DA:762,0
DA:768,0
DA:769,0
DA:796,0
DA:798,0
DA:801,0
DA:848,0
DA:859,0
end_of_record
SF:/usr/include/c++/11/bits/stl_bvector.h
FN:77,_ZNSt14_Bit_referenceC2EPmm
FNDA:30,_ZNSt14_Bit_referenceC2EPmm
FN:86,_ZNKSt14_Bit_referencecvbEv
FNDA:25,_ZNKSt14_Bit_referencecvbEv
FN:90,_ZNSt14_Bit_referenceaSEb
FNDA:5,_ZNSt14_Bit_referenceaSEb
FN:148,_ZNSt18_Bit_iterator_baseC2EPmj
FNDA:35,_ZNSt18_Bit_iterator_baseC2EPmj
FN:172,_ZNSt18_Bit_iterator_base7_M_incrEl
FNDA:31,_ZNSt18_Bit_iterator_base7_M_incrEl
FN:241,_ZNSt13_Bit_iteratorC2Ev
FNDA:4,_ZNSt13_Bit_iteratorC2Ev
FN:243,_ZNSt13_Bit_iteratorC2EPmj
FNDA:31,_ZNSt13_Bit_iteratorC2EPmj
FN:251,_ZNKSt13_Bit_iteratordeEv
FNDA:30,_ZNKSt13_Bit_iteratordeEv
FN:285,_ZNSt13_Bit_iteratorpLEl
FNDA:31,_ZNSt13_Bit_iteratorpLEl
FN:299,_ZNKSt13_Bit_iteratorixEl
FNDA:30,_ZNKSt13_Bit_iteratorixEl
FN:303,_ZStplRKSt13_Bit_iteratorl
FNDA:31,_ZStplRKSt13_Bit_iteratorl
FN:443,_ZNSt13_Bvector_baseISaIbEE18_Bvector_impl_dataC2Ev
FNDA:2,_ZNSt13_Bvector_baseISaIbEE18_Bvector_impl_dataC2Ev
FN:465,_ZNSt13_Bvector_baseISaIbEE18_Bvector_impl_data8_M_resetEv
FNDA:1,_ZNSt13_Bvector_baseISaIbEE18_Bvector_impl_data8_M_resetEv
FN:485,_ZNSt13_Bvector_baseISaIbEE13_Bvector_implC2ERKSaImE
FNDA:1,_ZNSt13_Bvector_baseISaIbEE13_Bvector_implC2ERKSaImE
FN:502,_ZNKSt13_Bvector_baseISaIbEE13_Bvector_impl11_M_end_addrEv
FNDA:2,_ZNKSt13_Bvector_baseISaIbEE13_Bvector_impl11_M_end_addrEv
FN:531,_ZNSt13_Bvector_baseISaIbEEC2ERKS0_
FNDA:1,_ZNSt13_Bvector_baseISaIbEEC2ERKS0_
FN:542,_ZNSt13_Bvector_baseISaIbEED2Ev
FNDA:1,_ZNSt13_Bvector_baseISaIbEED2Ev
FN:549,_ZNSt13_Bvector_baseISaIbEE11_M_allocateEm
FNDA:1,_ZNSt13_Bvector_baseISaIbEE11_M_allocateEm
FN:553,_ZNSt13_Bvector_baseISaIbEE13_M_deallocateEv
FNDA:1,_ZNSt13_Bvector_baseISaIbEE13_M_deallocateEv
FN:572,_ZNSt13_Bvector_baseISaIbEE8_S_nwordEm
FNDA:2,_ZNSt13_Bvector_baseISaIbEE8_S_nwordEm
FN:647,_ZNSt6vectorIbSaIbEEC2EmRKbRKS0_
FNDA:1,_ZNSt6vectorIbSaIbEEC2EmRKbRKS0_
FN:733,_ZNSt6vectorIbSaIbEED2Ev
FNDA:1,_ZNSt6vectorIbSaIbEED2Ev
FN:831,_ZNSt6vectorIbSaIbEE5beginEv
FNDA:30,_ZNSt6vectorIbSaIbEE5beginEv
FN:906,_ZNSt6vectorIbSaIbEEixEm
FNDA:30,_ZNSt6vectorIbSaIbEEixEm
FN:1137,_ZNSt6vectorIbSaIbEE13_M_initializeEm
FNDA:1,_ZNSt6vectorIbSaIbEE13_M_initializeEm
FN:1150,_ZNSt6vectorIbSaIbEE19_M_initialize_valueEb
FNDA:1,_ZNSt6vectorIbSaIbEE19_M_initialize_valueEb
DA:77,30
DA:78,30
DA:86,25
DA:87,25
DA:90,5
DA:92,5
DA:93,5
DA:95,0
DA:96,5
DA:148,35
DA:149,35
DA:172,31
DA:174,31
DA:175,31
DA:176,31
DA:177,31
DA:179,0
DA:180,0
DA:182,31
DA:183,31
DA:241,4
DA:243,31
DA:244,31
DA:251,30
DA:252,30
DA:285,31
DA:287,31
DA:288,31
DA:299,30
DA:300,30
DA:303,31
DA:305,31
DA:306,31
DA:307,31
DA:443,2
DA:444,2
DA:445,2
DA:465,1
DA:466,1
DA:485,1
DA:486,1
DA:487,1
DA:502,2
DA:504,2
DA:505,2
DA:506,0
DA:531,1
DA:532,1
DA:542,1
DA:543,1
DA:549,1
DA:550,1
DA:553,1
DA:555,1
DA:557,1
DA:558,1
DA:559,1
DA:561,1
DA:563,1
DA:572,2
DA:573,2
DA:647,1
DA:654,1
DA:656,1
DA:657,1
DA:658,1
DA:733,1
DA:831,30
DA:832,30
DA:906,30
DA:907,30
DA:1137,1
DA:1139,1
DA:1141,1
DA:1142,1
DA:1143,1
DA:1144,1
DA:1145,1
DA:1147,1
DA:1150,1
DA:1152,1
DA:1153,1
DA:1154,1
DA:1156,1
end_of_record
SF:/usr/include/c++/11/bits/alloc_traits.h
FN:463,_ZNSt16allocator_traitsISaIPiEE8allocateERS1_m
FNDA:0,_ZNSt16allocator_traitsISaIPiEE8allocateERS1_m
FN:463,_ZNSt16allocator_traitsISaISt10_List_nodeIiEEE8allocateERS2_m
FNDA:20,_ZNSt16allocator_traitsISaISt10_List_nodeIiEEE8allocateERS2_m
FN:463,_ZNSt16allocator_traitsISaIiEE8allocateERS0_m
FNDA:0,_ZNSt16allocator_traitsISaIiEE8allocateERS0_m
FN:463,_ZNSt16allocator_traitsISaINSt7__cxx114listIiSaIiEEEEE8allocateERS4_m
FNDA:1,_ZNSt16allocator_traitsISaINSt7__cxx114listIiSaIiEEEEE8allocateERS4_m
FN:463,_ZNSt16allocator_traitsISaImEE8allocateERS0_m
FNDA:1,_ZNSt16allocator_traitsISaImEE8allocateERS0_m
FN:495,_ZNSt16allocator_traitsISaINSt7__cxx114listIiSaIiEEEEE10deallocateERS4_PS3_m
FNDA:1,_ZNSt16allocator_traitsISaINSt7__cxx114listIiSaIiEEEEE10deallocateERS4_PS3_m
FN:495,_ZNSt16allocator_traitsISaISt10_List_nodeIiEEE10deallocateERS2_PS1_m
FNDA:20,_ZNSt16allocator_traitsISaISt10_List_nodeIiEEE10deallocateERS2_PS1_m
FN:495,_ZNSt16allocator_traitsISaIiEE10deallocateERS0_Pim
FNDA:0,_ZNSt16allocator_traitsISaIiEE10deallocateERS0_Pim
FN:495,_ZNSt16allocator_traitsISaIPiEE10deallocateERS1_PS0_m
FNDA:0,_ZNSt16allocator_traitsISaIPiEE10deallocateERS1_PS0_m
FN:495,_ZNSt16allocator_traitsISaImEE10deallocateERS0_Pmm
FNDA:1,_ZNSt16allocator_traitsISaImEE10deallocateERS0_Pmm
FN:511,_ZNSt16allocator_traitsISaIiEE9constructIiJRKiEEEvRS0_PT_DpOT0_
FNDA:0,_ZNSt16allocator_traitsISaIiEE9constructIiJRKiEEEvRS0_PT_DpOT0_
FN:511,_ZNSt16allocator_traitsISaINSt7__cxx114listIiSaIiEEEEE9constructIS3_JS3_EEEvRS4_PT_DpOT0_
FNDA:0,_ZNSt16allocator_traitsISaINSt7__cxx114listIiSaIiEEEEE9constructIS3_JS3_EEEvRS4_PT_DpOT0_
FN:511,_ZNSt16allocator_traitsISaIiEE9constructIiJiEEEvRS0_PT_DpOT0_
FNDA:0,_ZNSt16allocator_traitsISaIiEE9constructIiJiEEEvRS0_PT_DpOT0_
FN:511,_ZNSt16allocator_traitsISaISt10_List_nodeIiEEE9constructIiJRKiEEEvRS2_PT_DpOT0_
FNDA:20,_ZNSt16allocator_traitsISaISt10_List_nodeIiEEE9constructIiJRKiEEEvRS2_PT_DpOT0_
FN:531,_ZNSt16allocator_traitsISaINSt7__cxx114listIiSaIiEEEEE7destroyIS3_EEvRS4_PT_
FNDA:0,_ZNSt16allocator_traitsISaINSt7__cxx114listIiSaIiEEEEE7destroyIS3_EEvRS4_PT_
FN:531,_ZNSt16allocator_traitsISaIiEE7destroyIiEEvRS0_PT_
FNDA:0,_ZNSt16allocator_traitsISaIiEE7destroyIiEEvRS0_PT_
FN:531,_ZNSt16allocator_traitsISaISt10_List_nodeIiEEE7destroyIiEEvRS2_PT_
FNDA:20,_ZNSt16allocator_traitsISaISt10_List_nodeIiEEE7destroyIiEEvRS2_PT_
FN:547,_ZNSt16allocator_traitsISaINSt7__cxx114listIiSaIiEEEEE8max_sizeERKS4_
FNDA:4,_ZNSt16allocator_traitsISaINSt7__cxx114listIiSaIiEEEEE8max_sizeERKS4_
FN:547,_ZNSt16allocator_traitsISaIiEE8max_sizeERKS0_
FNDA:0,_ZNSt16allocator_traitsISaIiEE8max_sizeERKS0_
FN:562,_ZNSt16allocator_traitsISaINSt7__cxx114listIiSaIiEEEEE37select_on_container_copy_constructionERKS4_
FNDA:0,_ZNSt16allocator_traitsISaINSt7__cxx114listIiSaIiEEEEE37select_on_container_copy_constructionERKS4_
FN:562,_ZNSt16allocator_traitsISaISt10_List_nodeIiEEE37select_on_container_copy_constructionERKS2_
FNDA:0,_ZNSt16allocator_traitsISaISt10_List_nodeIiEEE37select_on_container_copy_constructionERKS2_
FN:845,_ZSt8_DestroyIPiiEvT_S1_RSaIT0_E
FNDA:0,_ZSt8_DestroyIPiiEvT_S1_RSaIT0_E
FN:845,_ZSt8_DestroyIPNSt7__cxx114listIiSaIiEEES3_EvT_S5_RSaIT0_E
FNDA:1,_ZSt8_DestroyIPNSt7__cxx114listIiSaIiEEES3_EvT_S5_RSaIT0_E
DA:463,0
DA:464,0
DA:463,20
DA:464,20
DA:463,0
DA:464,0
DA:463,1
DA:464,1
DA:463,1
DA:464,1
DA:495,20
DA:496,20
DA:495,0
DA:496,0
DA:495,1
DA:496,1
DA:495,0
DA:496,0
DA:495,1
DA:496,1
DA:511,0
DA:516,0
DA:520,0
DA:511,0
DA:516,0
DA:520,0
DA:511,20
DA:516,20
DA:520,20
DA:511,0
DA:516,0
DA:520,0
DA:531,0
DA:535,0
DA:539,0
DA:531,20
DA:535,20
DA:539,20
DA:531,0
DA:535,0
DA:539,0
DA:547,0
DA:550,0
DA:547,4
DA:550,4
DA:562,0
DA:563,0
DA:562,0
DA:563,0
DA:845,0
DA:848,0
DA:849,0
DA:845,1
DA:848,1
DA:849,1
end_of_record
SF:/usr/include/c++/11/ext/new_allocator.h
FN:79,_ZN9__gnu_cxx13new_allocatorIbEC2Ev
FNDA:1,_ZN9__gnu_cxx13new_allocatorIbEC2Ev
FN:79,_ZN9__gnu_cxx13new_allocatorISt10_List_nodeIiEEC2Ev
FNDA:5,_ZN9__gnu_cxx13new_allocatorISt10_List_nodeIiEEC2Ev
FN:79,_ZN9__gnu_cxx13new_allocatorImEC2Ev
FNDA:1,_ZN9__gnu_cxx13new_allocatorImEC2Ev
FN:79,_ZN9__gnu_cxx13new_allocatorIiEC2Ev
FNDA:0,_ZN9__gnu_cxx13new_allocatorIiEC2Ev
FN:79,_ZN9__gnu_cxx13new_allocatorINSt7__cxx114listIiSaIiEEEEC2Ev
FNDA:1,_ZN9__gnu_cxx13new_allocatorINSt7__cxx114listIiSaIiEEEEC2Ev
FN:79,_ZN9__gnu_cxx13new_allocatorIPiEC2Ev
FNDA:0,_ZN9__gnu_cxx13new_allocatorIPiEC2Ev
FN:82,_ZN9__gnu_cxx13new_allocatorImEC2ERKS1_
FNDA:1,_ZN9__gnu_cxx13new_allocatorImEC2ERKS1_
FN:82,_ZN9__gnu_cxx13new_allocatorINSt7__cxx114listIiSaIiEEEEC2ERKS5_
FNDA:0,_ZN9__gnu_cxx13new_allocatorINSt7__cxx114listIiSaIiEEEEC2ERKS5_
FN:82,_ZN9__gnu_cxx13new_allocatorISt10_List_nodeIiEEC2ERKS3_
FNDA:0,_ZN9__gnu_cxx13new_allocatorISt10_List_nodeIiEEC2ERKS3_
FN:89,_ZN9__gnu_cxx13new_allocatorINSt7__cxx114listIiSaIiEEEED2Ev
FNDA:1,_ZN9__gnu_cxx13new_allocatorINSt7__cxx114listIiSaIiEEEED2Ev
FN:89,_ZN9__gnu_cxx13new_allocatorIiED2Ev
FNDA:0,_ZN9__gnu_cxx13new_allocatorIiED2Ev
FN:89,_ZN9__gnu_cxx13new_allocatorISt10_List_nodeIiEED2Ev
FNDA:5,_ZN9__gnu_cxx13new_allocatorISt10_List_nodeIiEED2Ev
FN:89,_ZN9__gnu_cxx13new_allocatorIPiED2Ev
FNDA:0,_ZN9__gnu_cxx13new_allocatorIPiED2Ev
FN:89,_ZN9__gnu_cxx13new_allocatorImED2Ev
FNDA:2,_ZN9__gnu_cxx13new_allocatorImED2Ev
FN:89,_ZN9__gnu_cxx13new_allocatorIbED2Ev
FNDA:1,_ZN9__gnu_cxx13new_allocatorIbED2Ev
FN:103,_ZN9__gnu_cxx13new_allocatorIiE8allocateEmPKv
FNDA:0,_ZN9__gnu_cxx13new_allocatorIiE8allocateEmPKv
FN:103,_ZN9__gnu_cxx13new_allocatorISt10_List_nodeIiEE8allocateEmPKv
FNDA:20,_ZN9__gnu_cxx13new_allocatorISt10_List_nodeIiEE8allocateEmPKv
FN:103,_ZN9__gnu_cxx13new_allocatorIPiE8allocateEmPKv
FNDA:0,_ZN9__gnu_cxx13new_allocatorIPiE8allocateEmPKv
FN:103,_ZN9__gnu_cxx13new_allocatorINSt7__cxx114listIiSaIiEEEE8allocateEmPKv
FNDA:1,_ZN9__gnu_cxx13new_allocatorINSt7__cxx114listIiSaIiEEEE8allocateEmPKv
FN:103,_ZN9__gnu_cxx13new_allocatorImE8allocateEmPKv
FNDA:1,_ZN9__gnu_cxx13new_allocatorImE8allocateEmPKv
FN:132,_ZN9__gnu_cxx13new_allocatorIiE10deallocateEPim
FNDA:0,_ZN9__gnu_cxx13new_allocatorIiE10deallocateEPim
FN:132,_ZN9__gnu_cxx13new_allocatorINSt7__cxx114listIiSaIiEEEE10deallocateEPS4_m
FNDA:1,_ZN9__gnu_cxx13new_allocatorINSt7__cxx114listIiSaIiEEEE10deallocateEPS4_m
FN:132,_ZN9__gnu_cxx13new_allocatorImE10deallocateEPmm
FNDA:1,_ZN9__gnu_cxx13new_allocatorImE10deallocateEPmm
FN:132,_ZN9__gnu_cxx13new_allocatorIPiE10deallocateEPS1_m
FNDA:0,_ZN9__gnu_cxx13new_allocatorIPiE10deallocateEPS1_m
FN:132,_ZN9__gnu_cxx13new_allocatorISt10_List_nodeIiEE10deallocateEPS2_m
FNDA:20,_ZN9__gnu_cxx13new_allocatorISt10_List_nodeIiEE10deallocateEPS2_m
FN:154,_ZNK9__gnu_cxx13new_allocatorIiE8max_sizeEv
FNDA:0,_ZNK9__gnu_cxx13new_allocatorIiE8max_sizeEv
FN:154,_ZNK9__gnu_cxx13new_allocatorINSt7__cxx114listIiSaIiEEEE8max_sizeEv
FNDA:4,_ZNK9__gnu_cxx13new_allocatorINSt7__cxx114listIiSaIiEEEE8max_sizeEv
FN:160,_ZN9__gnu_cxx13new_allocatorIiE9constructIiJRKiEEEvPT_DpOT0_
FNDA:0,_ZN9__gnu_cxx13new_allocatorIiE9constructIiJRKiEEEvPT_DpOT0_
FN:160,_ZN9__gnu_cxx13new_allocatorINSt7__cxx114listIiSaIiEEEE9constructIS4_JS4_EEEvPT_DpOT0_
FNDA:0,_ZN9__gnu_cxx13new_allocatorINSt7__cxx114listIiSaIiEEEE9constructIS4_JS4_EEEvPT_DpOT0_
FN:160,_ZN9__gnu_cxx13new_allocatorISt10_List_nodeIiEE9constructIiJRKiEEEvPT_DpOT0_
FNDA:20,_ZN9__gnu_cxx13new_allocatorISt10_List_nodeIiEE9constructIiJRKiEEEvPT_DpOT0_
FN:160,_ZN9__gnu_cxx13new_allocatorIiE9constructIiJiEEEvPT_DpOT0_
FNDA:0,_ZN9__gnu_cxx13new_allocatorIiE9constructIiJiEEEvPT_DpOT0_
FN:166,_ZN9__gnu_cxx13new_allocatorIiE7destroyIiEEvPT_
FNDA:0,_ZN9__gnu_cxx13new_allocatorIiE7destroyIiEEvPT_
FN:166,_ZN9__gnu_cxx13new_allocatorISt10_List_nodeIiEE7destroyIiEEvPT_
FNDA:20,_ZN9__gnu_cxx13new_allocatorISt10_List_nodeIiEE7destroyIiEEvPT_
FN:166,_ZN9__gnu_cxx13new_allocatorINSt7__cxx114listIiSaIiEEEE7destroyIS4_EEvPT_
FNDA:0,_ZN9__gnu_cxx13new_allocatorINSt7__cxx114listIiSaIiEEEE7destroyIS4_EEvPT_
FN:197,_ZNK9__gnu_cxx13new_allocatorImE11_M_max_sizeEv
FNDA:1,_ZNK9__gnu_cxx13new_allocatorImE11_M_max_sizeEv
FN:197,_ZNK9__gnu_cxx13new_allocatorINSt7__cxx114listIiSaIiEEEE11_M_max_sizeEv
FNDA:5,_ZNK9__gnu_cxx13new_allocatorINSt7__cxx114listIiSaIiEEEE11_M_max_sizeEv
FN:197,_ZNK9__gnu_cxx13new_allocatorIiE11_M_max_sizeEv
FNDA:0,_ZNK9__gnu_cxx13new_allocatorIiE11_M_max_sizeEv
FN:197,_ZNK9__gnu_cxx13new_allocatorISt10_List_nodeIiEE11_M_max_sizeEv
FNDA:20,_ZNK9__gnu_cxx13new_allocatorISt10_List_nodeIiEE11_M_max_sizeEv
FN:197,_ZNK9__gnu_cxx13new_allocatorIPiE11_M_max_sizeEv
FNDA:0,_ZNK9__gnu_cxx13new_allocatorIPiE11_M_max_sizeEv
DA:79,0
DA:79,5
DA:79,1
DA:79,0
DA:79,1
DA:79,1
DA:82,0
DA:82,1
DA:82,0
DA:89,0
DA:89,5
DA:89,2
DA:89,0
DA:89,1
DA:89,1
DA:103,0
DA:111,0
DA:115,0
DA:116,0
DA:117,0
DA:127,0
DA:103,20
DA:111,20
DA:115,0
DA:116,0
DA:117,0
DA:127,20
DA:103,0
DA:111,0
DA:115,0
DA:116,0
DA:117,0
DA:127,0
DA:103,1
DA:111,1
DA:115,0
DA:116,0
DA:117,0
DA:127,1
DA:103,1
DA:111,1
DA:115,0
DA:116,0
DA:117,0
DA:127,1
DA:132,20
DA:145,20
DA:132,0
DA:145,0
DA:132,1
DA:145,1
DA:132,0
DA:145,0
DA:132,1
DA:145,1
DA:154,0
DA:155,0
DA:154,4
DA:155,4
DA:160,0
DA:162,0
DA:160,0
DA:162,0
DA:160,20
DA:162,20
DA:160,0
DA:162,0
DA:166,0
DA:168,0
DA:166,20
DA:168,20
DA:166,0
DA:168,0
DA:197,0
DA:200,0
DA:197,20
DA:200,20
DA:197,0
DA:200,0
DA:197,5
DA:200,5
DA:197,1
DA:200,1
end_of_record
SF:/usr/include/c++/11/bits/stl_iterator.h
FN:1027,_ZN9__gnu_cxx17__normal_iteratorIPiSt6vectorIiSaIiEEEC2ERKS1_
FNDA:0,_ZN9__gnu_cxx17__normal_iteratorIPiSt6vectorIiSaIiEEEC2ERKS1_
FN:1027,_ZN9__gnu_cxx17__normal_iteratorIPKNSt7__cxx114listIiSaIiEEESt6vectorIS4_SaIS4_EEEC2ERKS6_
FNDA:0,_ZN9__gnu_cxx17__normal_iteratorIPKNSt7__cxx114listIiSaIiEEESt6vectorIS4_SaIS4_EEEC2ERKS6_
FN:1042,_ZNK9__gnu_cxx17__normal_iteratorIPKNSt7__cxx114listIiSaIiEEESt6vectorIS4_SaIS4_EEEdeEv
FNDA:0,_ZNK9__gnu_cxx17__normal_iteratorIPKNSt7__cxx114listIiSaIiEEESt6vectorIS4_SaIS4_EEEdeEv
FN:1052,_ZN9__gnu_cxx17__normal_iteratorIPKNSt7__cxx114listIiSaIiEEESt6vectorIS4_SaIS4_EEEppEv
FNDA:0,_ZN9__gnu_cxx17__normal_iteratorIPKNSt7__cxx114listIiSaIiEEESt6vectorIS4_SaIS4_EEEppEv
FN:1105,_ZNK9__gnu_cxx17__normal_iteratorIPKNSt7__cxx114listIiSaIiEEESt6vectorIS4_SaIS4_EEE4baseEv
FNDA:0,_ZNK9__gnu_cxx17__normal_iteratorIPKNSt7__cxx114listIiSaIiEEESt6vectorIS4_SaIS4_EEE4baseEv
FN:1105,_ZNK9__gnu_cxx17__normal_iteratorIPiSt6vectorIiSaIiEEE4baseEv
FNDA:0,_ZNK9__gnu_cxx17__normal_iteratorIPiSt6vectorIiSaIiEEE4baseEv
FN:1179,_ZN9__gnu_cxxneIPKNSt7__cxx114listIiSaIiEEESt6vectorIS4_SaIS4_EEEEbRKNS_17__normal_iteratorIT_T0_EESF_
FNDA:0,_ZN9__gnu_cxxneIPKNSt7__cxx114listIiSaIiEEESt6vectorIS4_SaIS4_EEEEbRKNS_17__normal_iteratorIT_T0_EESF_
FN:1268,_ZN9__gnu_cxxmiIPiSt6vectorIiSaIiEEEENS_17__normal_iteratorIT_T0_E15difference_typeERKS8_SB_
FNDA:0,_ZN9__gnu_cxxmiIPiSt6vectorIiSaIiEEEENS_17__normal_iteratorIT_T0_E15difference_typeERKS8_SB_
DA:1027,0
DA:1028,0
DA:1027,0
DA:1028,0
DA:1042,0
DA:1043,0
DA:1052,0
DA:1054,0
DA:1055,0
DA:1105,0
DA:1106,0
DA:1105,0
DA:1106,0
DA:1179,0
DA:1182,0
DA:1268,0
DA:1271,0
end_of_record
SF:/usr/include/c++/11/bits/stl_uninitialized.h
FN:85,_ZNSt20__uninitialized_copyILb0EE13__uninit_copyIN9__gnu_cxx17__normal_iteratorIPKNSt7__cxx114listIiSaIiEEESt6vectorIS7_SaIS7_EEEEPS7_EET0_T_SG_SF_
FNDA:0,_ZNSt20__uninitialized_copyILb0EE13__uninit_copyIN9__gnu_cxx17__normal_iteratorIPKNSt7__cxx114listIiSaIiEEESt6vectorIS7_SaIS7_EEEEPS7_EET0_T_SG_SF_
FN:126,_ZSt18uninitialized_copyIN9__gnu_cxx17__normal_iteratorIPKNSt7__cxx114listIiSaIiEEESt6vectorIS5_SaIS5_EEEEPS5_ET0_T_SE_SD_
FNDA:0,_ZSt18uninitialized_copyIN9__gnu_cxx17__normal_iteratorIPKNSt7__cxx114listIiSaIiEEESt6vectorIS5_SaIS5_EEEEPS5_ET0_T_SE_SD_
FN:331,_ZSt22__uninitialized_copy_aIN9__gnu_cxx17__normal_iteratorIPKNSt7__cxx114listIiSaIiEEESt6vectorIS5_SaIS5_EEEEPS5_S5_ET0_T_SE_SD_RSaIT1_E
FNDA:0,_ZSt22__uninitialized_copy_aIN9__gnu_cxx17__normal_iteratorIPKNSt7__cxx114listIiSaIiEEESt6vectorIS5_SaIS5_EEEEPS5_S5_ET0_T_SE_SD_RSaIT1_E
FN:573,_ZNSt27__uninitialized_default_n_1ILb0EE18__uninit_default_nIPNSt7__cxx114listIiSaIiEEEmEET_S7_T0_
FNDA:1,_ZNSt27__uninitialized_default_n_1ILb0EE18__uninit_default_nIPNSt7__cxx114listIiSaIiEEEmEET_S7_T0_
FN:630,_ZSt25__uninitialized_default_nIPNSt7__cxx114listIiSaIiEEEmET_S5_T0_
FNDA:1,_ZSt25__uninitialized_default_nIPNSt7__cxx114listIiSaIiEEEmET_S5_T0_
FN:702,_ZSt27__uninitialized_default_n_aIPNSt7__cxx114listIiSaIiEEEmS3_ET_S5_T0_RSaIT1_E
FNDA:1,_ZSt27__uninitialized_default_n_aIPNSt7__cxx114listIiSaIiEEEmS3_ET_S5_T0_RSaIT1_E
FN:986,_ZSt19__relocate_object_aINSt7__cxx114listIiSaIiEEES3_SaIS3_EEvPT_PT0_RT1_
FNDA:0,_ZSt19__relocate_object_aINSt7__cxx114listIiSaIiEEES3_SaIS3_EEvPT_PT0_RT1_
FN:1006,_ZSt14__relocate_a_1IiiENSt9enable_ifIXsrSt24__is_bitwise_relocatableIT_vE5valueEPS2_E4typeES4_S4_S4_RSaIT0_E
FNDA:0,_ZSt14__relocate_a_1IiiENSt9enable_ifIXsrSt24__is_bitwise_relocatableIT_vE5valueEPS2_E4typeES4_S4_S4_RSaIT0_E
FN:1018,_ZSt14__relocate_a_1IPNSt7__cxx114listIiSaIiEEES4_SaIS3_EET0_T_S7_S6_RT1_
FNDA:1,_ZSt14__relocate_a_1IPNSt7__cxx114listIiSaIiEEES4_SaIS3_EET0_T_S7_S6_RT1_
FN:1040,_ZSt12__relocate_aIPiS0_SaIiEET0_T_S3_S2_RT1_
FNDA:0,_ZSt12__relocate_aIPiS0_SaIiEET0_T_S3_S2_RT1_
FN:1040,_ZSt12__relocate_aIPNSt7__cxx114listIiSaIiEEES4_SaIS3_EET0_T_S7_S6_RT1_
FNDA:1,_ZSt12__relocate_aIPNSt7__cxx114listIiSaIiEEES4_SaIS3_EET0_T_S7_S6_RT1_
DA:85,0
DA:88,0
DA:91,0
DA:92,0
DA:93,0
DA:95,0
DA:97,0
DA:98,0
DA:126,0
DA:145,0
DA:151,0
DA:331,0
DA:333,0
DA:573,1
DA:575,1
DA:578,6
DA:579,5
DA:580,1
DA:630,1
DA:635,1
DA:640,1
DA:702,1
DA:704,1
DA:986,0
DA:994,0
DA:995,0
DA:996,0
DA:1006,0
DA:1009,0
DA:1010,0
DA:1011,0
DA:1012,0
DA:1018,1
DA:1030,1
DA:1031,1
DA:1032,0
DA:1034,1
DA:1040,0
DA:1046,0
DA:1048,0
DA:1040,1
DA:1046,1
DA:1048,1
end_of_record
SF:/usr/include/c++/11/bits/stl_list.h
FN:110,_ZNSt8__detail17_List_node_headerC2Ev
FNDA:5,_ZNSt8__detail17_List_node_headerC2Ev
FN:114,_ZNSt8__detail17_List_node_headerC2EOS0_
FNDA:0,_ZNSt8__detail17_List_node_headerC2EOS0_
FN:150,_ZNSt8__detail17_List_node_header7_M_initEv
FNDA:5,_ZNSt8__detail17_List_node_header7_M_initEv
FN:159,_ZNSt8__detail17_List_node_header7_M_baseEv
FNDA:0,_ZNSt8__detail17_List_node_header7_M_baseEv
FN:171,_ZNSt10_List_nodeIiE9_M_valptrEv
FNDA:60,_ZNSt10_List_nodeIiE9_M_valptrEv
FN:172,_ZNKSt10_List_nodeIiE9_M_valptrEv
FNDA:0,_ZNKSt10_List_nodeIiE9_M_valptrEv
FN:201,_ZNSt14_List_iteratorIiEC2EPNSt8__detail15_List_node_baseE
FNDA:30,_ZNSt14_List_iteratorIiEC2EPNSt8__detail15_List_node_baseE
FN:210,_ZNKSt14_List_iteratorIiEdeEv
FNDA:20,_ZNKSt14_List_iteratorIiEdeEv
FN:218,_ZNSt14_List_iteratorIiEppEv
FNDA:20,_ZNSt14_List_iteratorIiEppEv
FN:233,_ZNSt14_List_iteratorIiEmmEv
FNDA:0,_ZNSt14_List_iteratorIiEmmEv
FN:253,_ZStneRKSt14_List_iteratorIiES2_
FNDA:25,_ZStneRKSt14_List_iteratorIiES2_
FN:283,_ZNSt20_List_const_iteratorIiEC2EPKNSt8__detail15_List_node_baseE
FNDA:0,_ZNSt20_List_const_iteratorIiEC2EPKNSt8__detail15_List_node_baseE
FN:287,_ZNSt20_List_const_iteratorIiEC2ERKSt14_List_iteratorIiE
FNDA:0,_ZNSt20_List_const_iteratorIiEC2ERKSt14_List_iteratorIiE
FN:291,_ZNKSt20_List_const_iteratorIiE13_M_const_castEv
FNDA:0,_ZNKSt20_List_const_iteratorIiE13_M_const_castEv
FN:296,_ZNKSt20_List_const_iteratorIiEdeEv
FNDA:0,_ZNKSt20_List_const_iteratorIiEdeEv
FN:304,_ZNSt20_List_const_iteratorIiEppEv
FNDA:0,_ZNSt20_List_const_iteratorIiEppEv
FN:334,_ZSteqRKSt20_List_const_iteratorIiES2_
FNDA:0,_ZSteqRKSt20_List_const_iteratorIiES2_
FN:339,_ZStneRKSt20_List_const_iteratorIiES2_
FNDA:0,_ZStneRKSt20_List_const_iteratorIiES2_
FN:380,_ZNSt7__cxx1110_List_baseIiSaIiEE10_List_implC2Ev
FNDA:5,_ZNSt7__cxx1110_List_baseIiSaIiEE10_List_implC2Ev
FN:390,_ZNSt7__cxx1110_List_baseIiSaIiEE10_List_implC2EOS3_
FNDA:0,_ZNSt7__cxx1110_List_baseIiSaIiEE10_List_implC2EOS3_
FN:396,_ZNSt7__cxx1110_List_baseIiSaIiEE10_List_implC2EOSaISt10_List_nodeIiEE
FNDA:0,_ZNSt7__cxx1110_List_baseIiSaIiEE10_List_implC2EOSaISt10_List_nodeIiEE
FN:405,_ZNKSt7__cxx1110_List_baseIiSaIiEE11_M_get_sizeEv
FNDA:7,_ZNKSt7__cxx1110_List_baseIiSaIiEE11_M_get_sizeEv
FN:409,_ZNSt7__cxx1110_List_baseIiSaIiEE11_M_inc_sizeEm
FNDA:20,_ZNSt7__cxx1110_List_baseIiSaIiEE11_M_inc_sizeEm
FN:411,_ZNSt7__cxx1110_List_baseIiSaIiEE11_M_dec_sizeEm
FNDA:0,_ZNSt7__cxx1110_List_baseIiSaIiEE11_M_dec_sizeEm
FN:442,_ZNSt7__cxx1110_List_baseIiSaIiEE11_M_get_nodeEv
FNDA:20,_ZNSt7__cxx1110_List_baseIiSaIiEE11_M_get_nodeEv
FN:446,_ZNSt7__cxx1110_List_baseIiSaIiEE11_M_put_nodeEPSt10_List_nodeIiE
FNDA:20,_ZNSt7__cxx1110_List_baseIiSaIiEE11_M_put_nodeEPSt10_List_nodeIiE
FN:453,_ZNSt7__cxx1110_List_baseIiSaIiEE21_M_get_Node_allocatorEv
FNDA:40,_ZNSt7__cxx1110_List_baseIiSaIiEE21_M_get_Node_allocatorEv
FN:457,_ZNKSt7__cxx1110_List_baseIiSaIiEE21_M_get_Node_allocatorEv
FNDA:0,_ZNKSt7__cxx1110_List_baseIiSaIiEE21_M_get_Node_allocatorEv
FN:461,_ZNSt7__cxx1110_List_baseIiSaIiEEC2Ev
FNDA:5,_ZNSt7__cxx1110_List_baseIiSaIiEEC2Ev
FN:471,_ZNSt7__cxx1110_List_baseIiSaIiEEC2EOS2_
FNDA:0,_ZNSt7__cxx1110_List_baseIiSaIiEEC2EOS2_
FN:489,_ZNSt7__cxx1110_List_baseIiSaIiEEC2EOSaISt10_List_nodeIiEE
FNDA:0,_ZNSt7__cxx1110_List_baseIiSaIiEEC2EOSaISt10_List_nodeIiEE
FN:499,_ZNSt7__cxx1110_List_baseIiSaIiEED2Ev
FNDA:5,_ZNSt7__cxx1110_List_baseIiSaIiEED2Ev
FN:633,_ZNSt7__cxx114listIiSaIiEE14_M_create_nodeIJRKiEEEPSt10_List_nodeIiEDpOT_
FNDA:20,_ZNSt7__cxx114listIiSaIiEE14_M_create_nodeIJRKiEEEPSt10_List_nodeIiEDpOT_
FN:652,_ZNKSt7__cxx114listIiSaIiEE13_M_node_countEv
FNDA:7,_ZNKSt7__cxx114listIiSaIiEE13_M_node_countEv
FN:674,_ZNSt7__cxx114listIiSaIiEEC2Ev
FNDA:5,_ZNSt7__cxx114listIiSaIiEEC2Ev
FN:684,_ZNSt7__cxx114listIiSaIiEEC2ERKS1_
FNDA:0,_ZNSt7__cxx114listIiSaIiEEC2ERKS1_
FN:736,_ZNSt7__cxx114listIiSaIiEEC2ERKS2_
FNDA:0,_ZNSt7__cxx114listIiSaIiEEC2ERKS2_
FN:749,_ZNSt7__cxx114listIiSaIiEEC2EOS2_
FNDA:0,_ZNSt7__cxx114listIiSaIiEEC2EOS2_
FN:828,_ZNSt7__cxx114listIiSaIiEED2Ev
FNDA:5,_ZNSt7__cxx114listIiSaIiEED2Ev
FN:937,_ZNKSt7__cxx114listIiSaIiEE13get_allocatorEv
FNDA:0,_ZNKSt7__cxx114listIiSaIiEE13get_allocatorEv
FN:946,_ZNSt7__cxx114listIiSaIiEE5beginEv
FNDA:5,_ZNSt7__cxx114listIiSaIiEE5beginEv
FN:955,_ZNKSt7__cxx114listIiSaIiEE5beginEv
FNDA:0,_ZNKSt7__cxx114listIiSaIiEE5beginEv
FN:964,_ZNSt7__cxx114listIiSaIiEE3endEv
FNDA:25,_ZNSt7__cxx114listIiSaIiEE3endEv
FN:973,_ZNKSt7__cxx114listIiSaIiEE3endEv
FNDA:0,_ZNKSt7__cxx114listIiSaIiEE3endEv
FN:1061,_ZNKSt7__cxx114listIiSaIiEE4sizeEv
FNDA:7,_ZNKSt7__cxx114listIiSaIiEE4sizeEv
FN:1115,_ZNSt7__cxx114listIiSaIiEE5frontEv
FNDA:0,_ZNSt7__cxx114listIiSaIiEE5frontEv
FN:1131,_ZNSt7__cxx114listIiSaIiEE4backEv
FNDA:0,_ZNSt7__cxx114listIiSaIiEE4backEv
FN:1212,_ZNSt7__cxx114listIiSaIiEE9push_backERKi
FNDA:20,_ZNSt7__cxx114listIiSaIiEE9push_backERKi
FN:1226,_ZNSt7__cxx114listIiSaIiEE12emplace_backIJRKiEEERiDpOT_
FNDA:0,_ZNSt7__cxx114listIiSaIiEE12emplace_backIJRKiEEERiDpOT_
FN:1554,_ZNSt7__cxx114listIiSaIiEE6spliceESt20_List_const_iteratorIiEOS2_S4_
FNDA:0,_ZNSt7__cxx114listIiSaIiEE6spliceESt20_List_const_iteratorIiEOS2_S4_
FN:1596,_ZNSt7__cxx114listIiSaIiEE6spliceESt20_List_const_iteratorIiERS2_S4_
FNDA:0,_ZNSt7__cxx114listIiSaIiEE6spliceESt20_List_const_iteratorIiERS2_S4_
FN:1836,_ZNSt7__cxx114listIiSaIiEE22_M_initialize_dispatchISt20_List_const_iteratorIiEEEvT_S6_St12__false_type
FNDA:0,_ZNSt7__cxx114listIiSaIiEE22_M_initialize_dispatchISt20_List_const_iteratorIiEEEvT_S6_St12__false_type
FN:1895,_ZNSt7__cxx114listIiSaIiEE11_M_transferESt14_List_iteratorIiES4_S4_
FNDA:0,_ZNSt7__cxx114listIiSaIiEE11_M_transferESt14_List_iteratorIiES4_S4_
FN:1910,_ZNSt7__cxx114listIiSaIiEE9_M_insertIJRKiEEEvSt14_List_iteratorIiEDpOT_
FNDA:20,_ZNSt7__cxx114listIiSaIiEE9_M_insertIJRKiEEEvSt14_List_iteratorIiEDpOT_
FN:1936,_ZNSt7__cxx114listIiSaIiEE25_M_check_equal_allocatorsERS2_
FNDA:0,_ZNSt7__cxx114listIiSaIiEE25_M_check_equal_allocatorsERS2_
DA:110,5
DA:111,5
DA:114,0
DA:115,0
DA:117,0
DA:120,0
DA:121,0
DA:124,0
DA:125,0
DA:127,0
DA:150,5
DA:152,5
DA:154,5
DA:156,5
DA:159,0
DA:171,60
DA:172,0
DA:201,30
DA:202,30
DA:210,20
DA:211,20
DA:218,20
DA:220,20
DA:221,20
DA:233,0
DA:235,0
DA:236,0
DA:253,25
DA:254,25
DA:283,0
DA:285,0
DA:287,0
DA:288,0
DA:291,0
DA:292,0
DA:296,0
DA:297,0
DA:304,0
DA:306,0
DA:307,0
DA:334,0
DA:335,0
DA:339,0
DA:340,0
DA:380,5
DA:382,5
DA:383,5
DA:390,0
DA:396,0
DA:397,0
DA:398,0
DA:405,7
DA:409,20
DA:411,0
DA:442,20
DA:443,20
DA:446,20
DA:447,20
DA:453,40
DA:454,40
DA:457,0
DA:458,0
DA:461,5
DA:471,0
DA:489,0
DA:490,0
DA:491,0
DA:499,5
DA:500,5
DA:633,20
DA:635,20
DA:636,20
DA:637,20
DA:638,20
DA:640,20
DA:641,20
DA:642,20
DA:652,7
DA:653,7
DA:674,5
DA:684,0
DA:685,0
DA:736,0
DA:738,0
DA:739,0
DA:749,0
DA:828,5
DA:937,0
DA:938,0
DA:946,5
DA:947,5
DA:955,0
DA:956,0
DA:964,25
DA:965,25
DA:973,0
DA:974,0
DA:1061,7
DA:1062,7
DA:1115,0
DA:1116,0
DA:1131,0
DA:1133,0
DA:1134,0
DA:1135,0
DA:1212,20
DA:1213,20
DA:1226,0
DA:1228,0
DA:1230,0
DA:1554,0
DA:1569,0
DA:1570,0
DA:1571,0
DA:1572,0
DA:1574,0
DA:1575,0
DA:1577,0
DA:1580,0
DA:1581,0
DA:1596,0
DA:1597,0
DA:1836,0
DA:1839,0
DA:1841,0
DA:1845,0
DA:1895,0
DA:1896,0
DA:1910,20
DA:1912,20
DA:1913,20
DA:1914,20
DA:1915,20
DA:1936,0
DA:1938,0
DA:1939,0
DA:1940,0
DA:1941,0
end_of_record
SF:/usr/include/c++/11/ext/alloc_traits.h
FN:97,_ZN9__gnu_cxx14__alloc_traitsISaISt10_List_nodeIiEES2_E17_S_select_on_copyERKS3_
FNDA:0,_ZN9__gnu_cxx14__alloc_traitsISaISt10_List_nodeIiEES2_E17_S_select_on_copyERKS3_
FN:97,_ZN9__gnu_cxx14__alloc_traitsISaINSt7__cxx114listIiSaIiEEEES4_E17_S_select_on_copyERKS5_
FNDA:0,_ZN9__gnu_cxx14__alloc_traitsISaINSt7__cxx114listIiSaIiEEEES4_E17_S_select_on_copyERKS5_
DA:97,0
DA:98,0
DA:97,0
DA:98,0
end_of_record
SF:/usr/include/c++/11/bits/vector.tcc
FN:426,_ZNSt6vectorIiSaIiEE17_M_realloc_insertIJRKiEEEvN9__gnu_cxx17__normal_iteratorIPiS1_EEDpOT_
FNDA:0,_ZNSt6vectorIiSaIiEE17_M_realloc_insertIJRKiEEEvN9__gnu_cxx17__normal_iteratorIPiS1_EEDpOT_
FN:611,_ZNSt6vectorINSt7__cxx114listIiSaIiEEESaIS3_EE17_M_default_appendEm
FNDA:1,_ZNSt6vectorINSt7__cxx114listIiSaIiEEESaIS3_EE17_M_default_appendEm
DA:426,0
DA:436,0
DA:437,0
DA:438,0
DA:439,0
DA:440,0
DA:441,0
DA:449,0
DA:450,0
DA:456,0
DA:461,0
DA:462,0
DA:464,0
DA:466,0
DA:467,0
DA:500,0
DA:501,0
DA:502,0
DA:503,0
DA:504,0
DA:505,0
DA:611,1
DA:614,1
DA:616,1
DA:617,1
DA:618,1
DA:620,1
DA:621,0
DA:623,1
DA:626,0
DA:627,0
DA:628,0
DA:634,1
DA:635,1
DA:640,1
DA:641,1
DA:643,0
DA:645,0
DA:646,0
DA:648,1
DA:649,1
DA:675,1
DA:676,1
DA:677,1
DA:678,1
DA:679,1
DA:680,1
DA:683,1
end_of_record
SF:/usr/include/c++/11/ext/aligned_buffer.h
FN:64,_ZN9__gnu_cxx16__aligned_membufIiE7_M_addrEv
FNDA:60,_ZN9__gnu_cxx16__aligned_membufIiE7_M_addrEv
FN:68,_ZNK9__gnu_cxx16__aligned_membufIiE7_M_addrEv
FNDA:0,_ZNK9__gnu_cxx16__aligned_membufIiE7_M_addrEv
FN:72,_ZN9__gnu_cxx16__aligned_membufIiE6_M_ptrEv
FNDA:60,_ZN9__gnu_cxx16__aligned_membufIiE6_M_ptrEv
FN:76,_ZNK9__gnu_cxx16__aligned_membufIiE6_M_ptrEv
FNDA:0,_ZNK9__gnu_cxx16__aligned_membufIiE6_M_ptrEv
DA:64,60
DA:65,60
DA:68,0
DA:69,0
DA:72,60
DA:73,60
DA:76,0
DA:77,0
end_of_record
SF:/usr/include/c++/11/bits/deque.tcc
FN:164,_ZNSt5dequeIiSaIiEE12emplace_backIJiEEERiDpOT_
FNDA:0,_ZNSt5dequeIiSaIiEE12emplace_backIJiEEERiDpOT_
FN:484,_ZNSt5dequeIiSaIiEE16_M_push_back_auxIJiEEEvDpOT_
FNDA:0,_ZNSt5dequeIiSaIiEE16_M_push_back_auxIJiEEEvDpOT_
FN:484,_ZNSt5dequeIiSaIiEE16_M_push_back_auxIJRKiEEEvDpOT_
FNDA:0,_ZNSt5dequeIiSaIiEE16_M_push_back_auxIJRKiEEEvDpOT_
FN:560,_ZNSt5dequeIiSaIiEE15_M_pop_back_auxEv
FNDA:0,_ZNSt5dequeIiSaIiEE15_M_pop_back_auxEv
FN:931,_ZNSt5dequeIiSaIiEE17_M_reallocate_mapEmb
FNDA:0,_ZNSt5dequeIiSaIiEE17_M_reallocate_mapEmb
DA:164,0
DA:167,0
DA:168,0
DA:170,0
DA:173,0
DA:176,0
DA:178,0
DA:484,0
DA:492,0
DA:493,0
DA:496,0
DA:497,0
DA:501,0
DA:507,0
DA:509,0
DA:516,0
DA:484,0
DA:492,0
DA:493,0
DA:496,0
DA:497,0
DA:501,0
DA:507,0
DA:509,0
DA:516,0
DA:560,0
DA:563,0
DA:564,0
DA:565,0
DA:566,0
DA:568,0
DA:931,0
DA:934,0
DA:935,0
DA:936,0
DA:939,0
DA:941,0
DA:942,0
DA:943,0
DA:944,0
DA:945,0
DA:946,0
DA:949,0
DA:950,0
DA:951,0
DA:955,0
DA:956,0
DA:959,0
DA:960,0
DA:961,0
DA:962,0
DA:963,0
DA:965,0
DA:967,0
DA:968,0
DA:971,0
DA:972,0
DA:973,0
end_of_record
SF:/usr/include/c++/11/bits/list.tcc
FN:66,_ZNSt7__cxx1110_List_baseIiSaIiEE8_M_clearEv
FNDA:5,_ZNSt7__cxx1110_List_baseIiSaIiEE8_M_clearEv
FN:331,_ZNSt7__cxx114listIiSaIiEE6removeERKi
FNDA:0,_ZNSt7__cxx114listIiSaIiEE6removeERKi
DA:66,5
DA:70,5
DA:71,25
DA:73,20
DA:74,20
DA:75,20
DA:77,20
DA:81,20
DA:83,5
DA:331,0
DA:337,0
DA:338,0
DA:339,0
DA:340,0
DA:342,0
DA:343,0
DA:344,0
DA:349,0
DA:355,0
DA:361,0
DA:363,0
end_of_record
SF:/usr/include/c++/11/new
FN:174,_ZnwmPv
FNDA:25,_ZnwmPv
FN:180,_ZdlPvS_
FNDA:0,_ZdlPvS_
DA:174,25
DA:175,25
DA:180,0
end_of_record
SF:/usr/include/c++/11/bits/stl_deque.h
FN:96,_ZSt16__deque_buf_sizem
FNDA:0,_ZSt16__deque_buf_sizem
FN:131,_ZNSt15_Deque_iteratorIiRiPiE14_S_buffer_sizeEv
FNDA:0,_ZNSt15_Deque_iteratorIiRiPiE14_S_buffer_sizeEv
FN:151,_ZNSt15_Deque_iteratorIiRiPiEC2Ev
FNDA:0,_ZNSt15_Deque_iteratorIiRiPiEC2Ev
FN:168,_ZNSt15_Deque_iteratorIiRiPiEC2ERKS2_
FNDA:0,_ZNSt15_Deque_iteratorIiRiPiEC2ERKS2_
FN:180,_ZNKSt15_Deque_iteratorIiRiPiEdeEv
FNDA:0,_ZNKSt15_Deque_iteratorIiRiPiEdeEv
FN:208,_ZNSt15_Deque_iteratorIiRiPiEmmEv
FNDA:0,_ZNSt15_Deque_iteratorIiRiPiEmmEv
FN:260,_ZNSt15_Deque_iteratorIiRiPiE11_M_set_nodeEPS1_
FNDA:0,_ZNSt15_Deque_iteratorIiRiPiE11_M_set_nodeEPS1_
FN:268,_ZSteqRKSt15_Deque_iteratorIiRiPiES4_
FNDA:0,_ZSteqRKSt15_Deque_iteratorIiRiPiES4_
FN:353,_ZStmiRKSt15_Deque_iteratorIiRiPiES4_
FNDA:0,_ZStmiRKSt15_Deque_iteratorIiRiPiES4_
FN:437,_ZNSt11_Deque_baseIiSaIiEEC2Ev
FNDA:0,_ZNSt11_Deque_baseIiSaIiEEC2Ev
FN:495,_ZNSt11_Deque_baseIiSaIiEE16_Deque_impl_dataC2Ev
FNDA:0,_ZNSt11_Deque_baseIiSaIiEE16_Deque_impl_dataC2Ev
FN:524,_ZNSt11_Deque_baseIiSaIiEE11_Deque_implC2Ev
FNDA:0,_ZNSt11_Deque_baseIiSaIiEE11_Deque_implC2Ev
FN:547,_ZNSt11_Deque_baseIiSaIiEE19_M_get_Tp_allocatorEv
FNDA:0,_ZNSt11_Deque_baseIiSaIiEE19_M_get_Tp_allocatorEv
FN:551,_ZNKSt11_Deque_baseIiSaIiEE19_M_get_Tp_allocatorEv
FNDA:0,_ZNKSt11_Deque_baseIiSaIiEE19_M_get_Tp_allocatorEv
FN:555,_ZNKSt11_Deque_baseIiSaIiEE20_M_get_map_allocatorEv
FNDA:0,_ZNKSt11_Deque_baseIiSaIiEE20_M_get_map_allocatorEv
FN:559,_ZNSt11_Deque_baseIiSaIiEE16_M_allocate_nodeEv
FNDA:0,_ZNSt11_Deque_baseIiSaIiEE16_M_allocate_nodeEv
FN:566,_ZNSt11_Deque_baseIiSaIiEE18_M_deallocate_nodeEPi
FNDA:0,_ZNSt11_Deque_baseIiSaIiEE18_M_deallocate_nodeEPi
FN:573,_ZNSt11_Deque_baseIiSaIiEE15_M_allocate_mapEm
FNDA:0,_ZNSt11_Deque_baseIiSaIiEE15_M_allocate_mapEm
FN:580,_ZNSt11_Deque_baseIiSaIiEE17_M_deallocate_mapEPPim
FNDA:0,_ZNSt11_Deque_baseIiSaIiEE17_M_deallocate_mapEPPim
FN:596,_ZNSt11_Deque_baseIiSaIiEED2Ev
FNDA:0,_ZNSt11_Deque_baseIiSaIiEED2Ev
FN:617,_ZNSt11_Deque_baseIiSaIiEE17_M_initialize_mapEm
FNDA:0,_ZNSt11_Deque_baseIiSaIiEE17_M_initialize_mapEm
FN:656,_ZNSt11_Deque_baseIiSaIiEE15_M_create_nodesEPPiS3_
FNDA:0,_ZNSt11_Deque_baseIiSaIiEE15_M_create_nodesEPPiS3_
FN:674,_ZNSt11_Deque_baseIiSaIiEE16_M_destroy_nodesEPPiS3_
FNDA:0,_ZNSt11_Deque_baseIiSaIiEE16_M_destroy_nodesEPPiS3_
FN:834,_ZNSt5dequeIiSaIiEEC2Ev
FNDA:0,_ZNSt5dequeIiSaIiEEC2Ev
FN:1006,_ZNSt5dequeIiSaIiEED2Ev
FNDA:0,_ZNSt5dequeIiSaIiEED2Ev
FN:1128,_ZNSt5dequeIiSaIiEE5beginEv
FNDA:0,_ZNSt5dequeIiSaIiEE5beginEv
FN:1145,_ZNSt5dequeIiSaIiEE3endEv
FNDA:0,_ZNSt5dequeIiSaIiEE3endEv
FN:1233,_ZNKSt5dequeIiSaIiEE4sizeEv
FNDA:0,_ZNKSt5dequeIiSaIiEE4sizeEv
FN:1238,_ZNKSt5dequeIiSaIiEE8max_sizeEv
FNDA:0,_ZNKSt5dequeIiSaIiEE8max_sizeEv
FN:1311,_ZNKSt5dequeIiSaIiEE5emptyEv
FNDA:0,_ZNKSt5dequeIiSaIiEE5emptyEv
FN:1427,_ZNSt5dequeIiSaIiEE4backEv
FNDA:0,_ZNSt5dequeIiSaIiEE4backEv
FN:1496,_ZNSt5dequeIiSaIiEE9push_backERKi
FNDA:0,_ZNSt5dequeIiSaIiEE9push_backERKi
FN:1511,_ZNSt5dequeIiSaIiEE9push_backEOi
FNDA:0,_ZNSt5dequeIiSaIiEE9push_backEOi
FN:1555,_ZNSt5dequeIiSaIiEE8pop_backEv
FNDA:0,_ZNSt5dequeIiSaIiEE8pop_backEv
FN:1834,_ZNSt5dequeIiSaIiEE11_S_max_sizeERKS0_
FNDA:0,_ZNSt5dequeIiSaIiEE11_S_max_sizeERKS0_
FN:2045,_ZNSt5dequeIiSaIiEE15_M_destroy_dataESt15_Deque_iteratorIiRiPiES5_RKS0_
FNDA:0,_ZNSt5dequeIiSaIiEE15_M_destroy_dataESt15_Deque_iteratorIiRiPiES5_RKS0_
FN:2126,_ZNSt5dequeIiSaIiEE22_M_reserve_map_at_backEm
FNDA:0,_ZNSt5dequeIiSaIiEE22_M_reserve_map_at_backEm
DA:96,0
DA:98,0
DA:131,0
DA:132,0
DA:151,0
DA:152,0
DA:168,0
DA:169,0
DA:170,0
DA:180,0
DA:181,0
DA:208,0
DA:210,0
DA:212,0
DA:213,0
DA:215,0
DA:216,0
DA:260,0
DA:262,0
DA:263,0
DA:264,0
DA:265,0
DA:268,0
DA:269,0
DA:353,0
DA:355,0
DA:356,0
DA:357,0
DA:358,0
DA:437,0
DA:438,0
DA:439,0
DA:495,0
DA:496,0
DA:497,0
DA:524,0
DA:526,0
DA:527,0
DA:547,0
DA:548,0
DA:551,0
DA:552,0
DA:555,0
DA:556,0
DA:559,0
DA:562,0
DA:566,0
DA:569,0
DA:570,0
DA:573,0
DA:575,0
DA:576,0
DA:577,0
DA:580,0
DA:582,0
DA:583,0
DA:584,0
DA:596,0
DA:599,0
DA:601,0
DA:602,0
DA:603,0
DA:605,0
DA:617,0
DA:620,0
DA:623,0
DA:624,0
DA:625,0
DA:632,0
DA:633,0
DA:634,0
DA:637,0
DA:638,0
DA:640,0
DA:641,0
DA:642,0
DA:643,0
DA:646,0
DA:647,0
DA:648,0
DA:649,0
DA:650,0
DA:651,0
DA:652,0
DA:656,0
DA:662,0
DA:663,0
DA:665,0
DA:667,0
DA:668,0
DA:670,0
DA:674,0
DA:678,0
DA:679,0
DA:680,0
DA:834,0
DA:1006,0
DA:1007,0
DA:1128,0
DA:1129,0
DA:1145,0
DA:1146,0
DA:1233,0
DA:1234,0
DA:1238,0
DA:1239,0
DA:1311,0
DA:1312,0
DA:1427,0
DA:1430,0
DA:1431,0
DA:1432,0
DA:1496,0
DA:1498,0
DA:1499,0
DA:1501,0
DA:1503,0
DA:1506,0
DA:1507,0
DA:1511,0
DA:1512,0
DA:1555,0
DA:1558,0
DA:1559,0
DA:1561,0
DA:1562,0
DA:1566,0
DA:1567,0
DA:1834,0
DA:1836,0
DA:1837,0
DA:1838,0
DA:2045,0
DA:2050,0
DA:2126,0
DA:2128,0
DA:2129,0
DA:2130,0
DA:2131,0
end_of_record
SF:/usr/include/c++/11/bits/stl_stack.h
FN:162,_ZNSt5stackIiSt5dequeIiSaIiEEEC2IS2_vEEv
FNDA:0,_ZNSt5stackIiSt5dequeIiSaIiEEEC2IS2_vEEv
FN:199,_ZNKSt5stackIiSt5dequeIiSaIiEEE5emptyEv
FNDA:0,_ZNKSt5stackIiSt5dequeIiSaIiEEE5emptyEv
FN:212,_ZNSt5stackIiSt5dequeIiSaIiEEE3topEv
FNDA:0,_ZNSt5stackIiSt5dequeIiSaIiEEE3topEv
FN:239,_ZNSt5stackIiSt5dequeIiSaIiEEE4pushERKi
FNDA:0,_ZNSt5stackIiSt5dequeIiSaIiEEE4pushERKi
FN:244,_ZNSt5stackIiSt5dequeIiSaIiEEE4pushEOi
FNDA:0,_ZNSt5stackIiSt5dequeIiSaIiEEE4pushEOi
FN:272,_ZNSt5stackIiSt5dequeIiSaIiEEE3popEv
FNDA:0,_ZNSt5stackIiSt5dequeIiSaIiEEE3popEv
DA:162,0
DA:163,0
DA:199,0
DA:200,0
DA:212,0
DA:215,0
DA:239,0
DA:240,0
DA:244,0
DA:245,0
DA:272,0
DA:275,0
DA:276,0
end_of_record
SF:/usr/include/c++/11/bits/allocated_ptr.h
FN:53,_ZNSt15__allocated_ptrISaISt10_List_nodeIiEEEC2ERS2_PS1_
FNDA:20,_ZNSt15__allocated_ptrISaISt10_List_nodeIiEEEC2ERS2_PS1_
FN:71,_ZNSt15__allocated_ptrISaISt10_List_nodeIiEEED2Ev
FNDA:20,_ZNSt15__allocated_ptrISaISt10_List_nodeIiEEED2Ev
FN:79,_ZNSt15__allocated_ptrISaISt10_List_nodeIiEEEaSEDn
FNDA:20,_ZNSt15__allocated_ptrISaISt10_List_nodeIiEEEaSEDn
DA:53,20
DA:54,20
DA:55,20
DA:71,20
DA:73,20
DA:74,0
DA:75,20
DA:79,20
DA:81,20
DA:82,20
end_of_record
SF:/usr/include/c++/11/bits/move.h
FN:49,_ZSt11__addressofISaISt10_List_nodeIiEEEPT_RS3_
FNDA:20,_ZSt11__addressofISaISt10_List_nodeIiEEEPT_RS3_
FN:49,_ZSt11__addressofINSt7__cxx114listIiSaIiEEEEPT_RS4_
FNDA:10,_ZSt11__addressofINSt7__cxx114listIiSaIiEEEEPT_RS4_
FN:49,_ZSt11__addressofImEPT_RS0_
FNDA:3,_ZSt11__addressofImEPT_RS0_
FN:77,_ZSt7forwardINSt7__cxx114listIiSaIiEEEEOT_RNSt16remove_referenceIS4_E4typeE
FNDA:0,_ZSt7forwardINSt7__cxx114listIiSaIiEEEEOT_RNSt16remove_referenceIS4_E4typeE
FN:77,_ZSt7forwardIRKNSt7__cxx114listIiSaIiEEEEOT_RNSt16remove_referenceIS6_E4typeE
FNDA:0,_ZSt7forwardIRKNSt7__cxx114listIiSaIiEEEEOT_RNSt16remove_referenceIS6_E4typeE
FN:77,_ZSt7forwardIiEOT_RNSt16remove_referenceIS0_E4typeE
FNDA:0,_ZSt7forwardIiEOT_RNSt16remove_referenceIS0_E4typeE
FN:77,_ZSt7forwardIRKiEOT_RNSt16remove_referenceIS2_E4typeE
FNDA:80,_ZSt7forwardIRKiEOT_RNSt16remove_referenceIS2_E4typeE
FN:104,_ZSt4moveIRSaISt10_List_nodeIiEEEONSt16remove_referenceIT_E4typeEOS5_
FNDA:0,_ZSt4moveIRSaISt10_List_nodeIiEEEONSt16remove_referenceIT_E4typeEOS5_
FN:104,_ZSt4moveIRNSt7__cxx114listIiSaIiEEEEONSt16remove_referenceIT_E4typeEOS6_
FNDA:0,_ZSt4moveIRNSt7__cxx114listIiSaIiEEEEONSt16remove_referenceIT_E4typeEOS6_
FN:104,_ZSt4moveIRiEONSt16remove_referenceIT_E4typeEOS2_
FNDA:0,_ZSt4moveIRiEONSt16remove_referenceIT_E4typeEOS2_
DA:49,20
DA:50,20
DA:49,10
DA:50,10
DA:49,3
DA:50,3
DA:77,0
DA:78,0
DA:77,0
DA:78,0
DA:77,0
DA:78,0
DA:77,80
DA:78,80
DA:104,0
DA:105,0
DA:104,0
DA:105,0
DA:104,0
DA:105,0
end_of_record
SF:/usr/include/c++/11/bits/stl_vector.h
FN:97,_ZNSt12_Vector_baseINSt7__cxx114listIiSaIiEEESaIS3_EE17_Vector_impl_dataC2Ev
FNDA:1,_ZNSt12_Vector_baseINSt7__cxx114listIiSaIiEEESaIS3_EE17_Vector_impl_dataC2Ev
FN:97,_ZNSt12_Vector_baseIiSaIiEE17_Vector_impl_dataC2Ev
FNDA:0,_ZNSt12_Vector_baseIiSaIiEE17_Vector_impl_dataC2Ev
FN:131,_ZNSt12_Vector_baseINSt7__cxx114listIiSaIiEEESaIS3_EE12_Vector_implC2Ev
FNDA:1,_ZNSt12_Vector_baseINSt7__cxx114listIiSaIiEEESaIS3_EE12_Vector_implC2Ev
FN:131,_ZNSt12_Vector_baseIiSaIiEE12_Vector_implC2Ev
FNDA:0,_ZNSt12_Vector_baseIiSaIiEE12_Vector_implC2Ev
FN:136,_ZNSt12_Vector_baseINSt7__cxx114listIiSaIiEEESaIS3_EE12_Vector_implC2ERKS4_
FNDA:0,_ZNSt12_Vector_baseINSt7__cxx114listIiSaIiEEESaIS3_EE12_Vector_implC2ERKS4_
FN:276,_ZNSt12_Vector_baseINSt7__cxx114listIiSaIiEEESaIS3_EE19_M_get_Tp_allocatorEv
FNDA:3,_ZNSt12_Vector_baseINSt7__cxx114listIiSaIiEEESaIS3_EE19_M_get_Tp_allocatorEv
FN:276,_ZNSt12_Vector_baseIiSaIiEE19_M_get_Tp_allocatorEv
FNDA:0,_ZNSt12_Vector_baseIiSaIiEE19_M_get_Tp_allocatorEv
FN:280,_ZNKSt12_Vector_baseINSt7__cxx114listIiSaIiEEESaIS3_EE19_M_get_Tp_allocatorEv
FNDA:4,_ZNKSt12_Vector_baseINSt7__cxx114listIiSaIiEEESaIS3_EE19_M_get_Tp_allocatorEv
FN:280,_ZNKSt12_Vector_baseIiSaIiEE19_M_get_Tp_allocatorEv
FNDA:0,_ZNKSt12_Vector_baseIiSaIiEE19_M_get_Tp_allocatorEv
FN:288,_ZNSt12_Vector_baseINSt7__cxx114listIiSaIiEEESaIS3_EEC2Ev
FNDA:1,_ZNSt12_Vector_baseINSt7__cxx114listIiSaIiEEESaIS3_EEC2Ev
FN:288,_ZNSt12_Vector_baseIiSaIiEEC2Ev
FNDA:0,_ZNSt12_Vector_baseIiSaIiEEC2Ev
FN:303,_ZNSt12_Vector_baseINSt7__cxx114listIiSaIiEEESaIS3_EEC2EmRKS4_
FNDA:0,_ZNSt12_Vector_baseINSt7__cxx114listIiSaIiEEESaIS3_EEC2EmRKS4_
FN:333,_ZNSt12_Vector_baseINSt7__cxx114listIiSaIiEEESaIS3_EED2Ev
FNDA:1,_ZNSt12_Vector_baseINSt7__cxx114listIiSaIiEEESaIS3_EED2Ev
FN:333,_ZNSt12_Vector_baseIiSaIiEED2Ev
FNDA:0,_ZNSt12_Vector_baseIiSaIiEED2Ev
FN:343,_ZNSt12_Vector_baseINSt7__cxx114listIiSaIiEEESaIS3_EE11_M_allocateEm
FNDA:1,_ZNSt12_Vector_baseINSt7__cxx114listIiSaIiEEESaIS3_EE11_M_allocateEm
FN:343,_ZNSt12_Vector_baseIiSaIiEE11_M_allocateEm
FNDA:0,_ZNSt12_Vector_baseIiSaIiEE11_M_allocateEm
FN:350,_ZNSt12_Vector_baseINSt7__cxx114listIiSaIiEEESaIS3_EE13_M_deallocateEPS3_m
FNDA:2,_ZNSt12_Vector_baseINSt7__cxx114listIiSaIiEEESaIS3_EE13_M_deallocateEPS3_m
FN:350,_ZNSt12_Vector_baseIiSaIiEE13_M_deallocateEPim
FNDA:0,_ZNSt12_Vector_baseIiSaIiEE13_M_deallocateEPim
FN:359,_ZNSt12_Vector_baseINSt7__cxx114listIiSaIiEEESaIS3_EE17_M_create_storageEm
FNDA:0,_ZNSt12_Vector_baseINSt7__cxx114listIiSaIiEEESaIS3_EE17_M_create_storageEm
FN:453,_ZNSt6vectorIiSaIiEE14_S_do_relocateEPiS2_S2_RS0_St17integral_constantIbLb1EE
FNDA:0,_ZNSt6vectorIiSaIiEE14_S_do_relocateEPiS2_S2_RS0_St17integral_constantIbLb1EE
FN:453,_ZNSt6vectorINSt7__cxx114listIiSaIiEEESaIS3_EE14_S_do_relocateEPS3_S6_S6_RS4_St17integral_constantIbLb1EE
FNDA:1,_ZNSt6vectorINSt7__cxx114listIiSaIiEEESaIS3_EE14_S_do_relocateEPS3_S6_S6_RS4_St17integral_constantIbLb1EE
FN:465,_ZNSt6vectorINSt7__cxx114listIiSaIiEEESaIS3_EE11_S_relocateEPS3_S6_S6_RS4_
FNDA:1,_ZNSt6vectorINSt7__cxx114listIiSaIiEEESaIS3_EE11_S_relocateEPS3_S6_S6_RS4_
FN:465,_ZNSt6vectorIiSaIiEE11_S_relocateEPiS2_S2_RS0_
FNDA:0,_ZNSt6vectorIiSaIiEE11_S_relocateEPiS2_S2_RS0_
FN:487,_ZNSt6vectorIiSaIiEEC2Ev
FNDA:0,_ZNSt6vectorIiSaIiEEC2Ev
FN:487,_ZNSt6vectorINSt7__cxx114listIiSaIiEEESaIS3_EEC2Ev
FNDA:1,_ZNSt6vectorINSt7__cxx114listIiSaIiEEESaIS3_EEC2Ev
FN:553,_ZNSt6vectorINSt7__cxx114listIiSaIiEEESaIS3_EEC2ERKS5_
FNDA:0,_ZNSt6vectorINSt7__cxx114listIiSaIiEEESaIS3_EEC2ERKS5_
FN:678,_ZNSt6vectorINSt7__cxx114listIiSaIiEEESaIS3_EED2Ev
FNDA:1,_ZNSt6vectorINSt7__cxx114listIiSaIiEEESaIS3_EED2Ev
FN:678,_ZNSt6vectorIiSaIiEED2Ev
FNDA:0,_ZNSt6vectorIiSaIiEED2Ev
FN:811,_ZNSt6vectorIiSaIiEE5beginEv
FNDA:0,_ZNSt6vectorIiSaIiEE5beginEv
FN:820,_ZNKSt6vectorINSt7__cxx114listIiSaIiEEESaIS3_EE5beginEv
FNDA:0,_ZNKSt6vectorINSt7__cxx114listIiSaIiEEESaIS3_EE5beginEv
FN:829,_ZNSt6vectorIiSaIiEE3endEv
FNDA:0,_ZNSt6vectorIiSaIiEE3endEv
FN:838,_ZNKSt6vectorINSt7__cxx114listIiSaIiEEESaIS3_EE3endEv
FNDA:0,_ZNKSt6vectorINSt7__cxx114listIiSaIiEEESaIS3_EE3endEv
FN:918,_ZNKSt6vectorIiSaIiEE4sizeEv
FNDA:0,_ZNKSt6vectorIiSaIiEE4sizeEv
FN:918,_ZNKSt6vectorINSt7__cxx114listIiSaIiEEESaIS3_EE4sizeEv
FNDA:7,_ZNKSt6vectorINSt7__cxx114listIiSaIiEEESaIS3_EE4sizeEv
FN:923,_ZNKSt6vectorINSt7__cxx114listIiSaIiEEESaIS3_EE8max_sizeEv
FNDA:4,_ZNKSt6vectorINSt7__cxx114listIiSaIiEEESaIS3_EE8max_sizeEv
FN:923,_ZNKSt6vectorIiSaIiEE8max_sizeEv
FNDA:0,_ZNKSt6vectorIiSaIiEE8max_sizeEv
FN:937,_ZNSt6vectorINSt7__cxx114listIiSaIiEEESaIS3_EE6resizeEm
FNDA:1,_ZNSt6vectorINSt7__cxx114listIiSaIiEEESaIS3_EE6resizeEm
FN:1043,_ZNSt6vectorIiSaIiEEixEm
FNDA:0,_ZNSt6vectorIiSaIiEEixEm
FN:1043,_ZNSt6vectorINSt7__cxx114listIiSaIiEEESaIS3_EEixEm
FNDA:32,_ZNSt6vectorINSt7__cxx114listIiSaIiEEESaIS3_EEixEm
FN:1187,_ZNSt6vectorIiSaIiEE9push_backERKi
FNDA:0,_ZNSt6vectorIiSaIiEE9push_backERKi
FN:1756,_ZNKSt6vectorINSt7__cxx114listIiSaIiEEESaIS3_EE12_M_check_lenEmPKc
FNDA:1,_ZNKSt6vectorINSt7__cxx114listIiSaIiEEESaIS3_EE12_M_check_lenEmPKc
FN:1756,_ZNKSt6vectorIiSaIiEE12_M_check_lenEmPKc
FNDA:0,_ZNKSt6vectorIiSaIiEE12_M_check_lenEmPKc
FN:1776,_ZNSt6vectorIiSaIiEE11_S_max_sizeERKS0_
FNDA:0,_ZNSt6vectorIiSaIiEE11_S_max_sizeERKS0_
FN:1776,_ZNSt6vectorINSt7__cxx114listIiSaIiEEESaIS3_EE11_S_max_sizeERKS4_
FNDA:4,_ZNSt6vectorINSt7__cxx114listIiSaIiEEESaIS3_EE11_S_max_sizeERKS4_
FN:1792,_ZNSt6vectorINSt7__cxx114listIiSaIiEEESaIS3_EE15_M_erase_at_endEPS3_
FNDA:0,_ZNSt6vectorINSt7__cxx114listIiSaIiEEESaIS3_EE15_M_erase_at_endEPS3_
DA:97,0
DA:98,0
DA:99,0
DA:97,1
DA:98,1
DA:99,1
DA:131,0
DA:133,0
DA:134,0
DA:131,1
DA:133,1
DA:134,1
DA:136,0
DA:137,0
DA:138,0
DA:276,0
DA:277,0
DA:276,3
DA:277,3
DA:280,0
DA:281,0
DA:280,4
DA:281,4
DA:288,0
DA:288,1
DA:303,0
DA:304,0
DA:305,0
DA:333,0
DA:335,0
DA:336,0
DA:337,0
DA:333,1
DA:335,1
DA:336,1
DA:337,1
DA:343,0
DA:346,0
DA:343,1
DA:346,1
DA:350,0
DA:353,0
DA:354,0
DA:355,0
DA:350,2
DA:353,2
DA:354,1
DA:355,2
DA:359,0
DA:361,0
DA:362,0
DA:363,0
DA:364,0
DA:453,0
DA:456,0
DA:453,1
DA:456,1
DA:465,0
DA:469,0
DA:465,1
DA:469,1
DA:487,0
DA:487,1
DA:553,0
DA:555,0
DA:557,0
DA:558,0
DA:560,0
DA:561,0
DA:678,0
DA:680,0
DA:681,0
DA:683,0
DA:678,1
DA:680,1
DA:681,1
DA:683,1
DA:811,0
DA:812,0
DA:820,0
DA:821,0
DA:829,0
DA:830,0
DA:838,0
DA:839,0
DA:918,7
DA:919,7
DA:918,0
DA:919,0
DA:923,0
DA:924,0
DA:923,4
DA:924,4
DA:937,1
DA:939,1
DA:940,1
DA:941,0
DA:942,0
DA:943,1
DA:1043,0
DA:1046,0
DA:1043,32
DA:1046,32
DA:1187,0
DA:1189,0
DA:1192,0
DA:1194,0
DA:1198,0
DA:1199,0
DA:1756,0
DA:1758,0
DA:1759,0
DA:1761,0
DA:1762,0
DA:1756,1
DA:1758,1
DA:1759,0
DA:1761,1
DA:1762,1
DA:1776,0
DA:1781,0
DA:1783,0
DA:1784,0
DA:1776,4
DA:1781,4
DA:1783,4
DA:1784,4
DA:1792,0
DA:1794,0
DA:1796,0
DA:1797,0
DA:1798,0
DA:1801,0
end_of_record
SF:/usr/include/c++/11/bits/stl_construct.h
FN:109,_ZSt10_ConstructINSt7__cxx114listIiSaIiEEEJEEvPT_DpOT0_
FNDA:5,_ZSt10_ConstructINSt7__cxx114listIiSaIiEEEJEEvPT_DpOT0_
FN:109,_ZSt10_ConstructINSt7__cxx114listIiSaIiEEEJRKS3_EEvPT_DpOT0_
FNDA:0,_ZSt10_ConstructINSt7__cxx114listIiSaIiEEEJRKS3_EEvPT_DpOT0_
FN:146,_ZSt8_DestroyINSt7__cxx114listIiSaIiEEEEvPT_
FNDA:5,_ZSt8_DestroyINSt7__cxx114listIiSaIiEEEEvPT_
FN:160,_ZNSt12_Destroy_auxILb0EE9__destroyIPNSt7__cxx114listIiSaIiEEEEEvT_S7_
FNDA:1,_ZNSt12_Destroy_auxILb0EE9__destroyIPNSt7__cxx114listIiSaIiEEEEEvT_S7_
FN:172,_ZNSt12_Destroy_auxILb1EE9__destroyIPiEEvT_S3_
FNDA:0,_ZNSt12_Destroy_auxILb1EE9__destroyIPiEEvT_S3_
FN:182,_ZSt8_DestroyIPiEvT_S1_
FNDA:0,_ZSt8_DestroyIPiEvT_S1_
FN:182,_ZSt8_DestroyIPNSt7__cxx114listIiSaIiEEEEvT_S5_
FNDA:1,_ZSt8_DestroyIPNSt7__cxx114listIiSaIiEEEEvT_S5_
DA:109,5
DA:119,5
DA:120,5
DA:109,0
DA:119,0
DA:120,0
DA:146,5
DA:151,5
DA:153,5
DA:160,1
DA:162,6
DA:163,5
DA:164,1
DA:172,0
DA:182,0
DA:196,0
DA:197,0
DA:182,1
DA:196,1
DA:197,1
end_of_record
SF:/home/avishag/Downloads/OS4/graph3.cpp
FN:15,_ZN5Graph3DFSEiRSt6vectorIbSaIbEE
FNDA:5,_ZN5Graph3DFSEiRSt6vectorIbSaIbEE
FN:23,_ZN5Graph11isConnectedEv
FNDA:1,_ZN5Graph11isConnectedEv
FN:53,_ZN5GraphC2Ei
FNDA:1,_ZN5GraphC2Ei
FN:59,_ZN5Graph7addEdgeEii
FNDA:10,_ZN5Graph7addEdgeEii
FN:65,_ZN5Graph18hasEulerianCircuitEv
FNDA:1,_ZN5Graph18hasEulerianCircuitEv
FN:78,_ZN5Graph19findEulerianCircuitEv
FNDA:1,_ZN5Graph19findEulerianCircuitEv
FN:119,_Z19generateRandomGraphiij
FNDA:1,_Z19generateRandomGraphiij
FN:132,main
FNDA:1,main
DA:15,5
DA:16,5
DA:17,25
DA:18,20
DA:19,4
DA:20,5
DA:23,1
DA:24,1
DA:27,1
DA:28,1
DA:29,1
DA:30,1
DA:31,1
DA:36,1
DA:37,0
DA:40,1
DA:43,6
DA:44,5
DA:45,0
DA:48,1
DA:49,1
DA:53,1
DA:54,1
DA:55,1
DA:56,1
DA:59,10
DA:60,10
DA:61,10
DA:62,10
DA:65,1
DA:66,1
DA:67,0
DA:69,1
DA:70,1
DA:71,1
DA:74,0
DA:78,1
DA:79,1
DA:80,1
DA:81,1
DA:85,0
DA:87,0
DA:88,0
DA:91,0
DA:92,0
DA:94,0
DA:95,0
DA:96,0
DA:97,0
DA:98,0
DA:99,0
DA:100,0
DA:102,0
DA:103,0
DA:104,0
DA:109,0
DA:110,0
DA:111,0
DA:112,0
DA:114,0
DA:115,0
DA:119,1
DA:120,1
DA:121,1
DA:123,11
DA:124,10
DA:125,10
DA:126,10
DA:129,1
DA:130,0
DA:132,1
DA:133,1
DA:134,1
DA:135,1
DA:138,4
DA:139,3
DA:140,1
DA:141,1
DA:142,1
DA:143,1
DA:144,1
DA:145,1
DA:146,1
DA:147,1
DA:148,1
DA:149,0
DA:150,0
DA:151,0
DA:156,1
DA:159,1
DA:161,1
end_of_record
SF:/usr/include/c++/11/bits/cpp_type_traits.h
FN:560,_ZSt12__miter_baseIPPiET_S2_
FNDA:0,_ZSt12__miter_baseIPPiET_S2_
DA:560,0
DA:561,0
end_of_record
SF:/usr/include/c++/11/bits/allocator.h
FN:156,_ZNSaIbEC2Ev
FNDA:1,_ZNSaIbEC2Ev
FN:156,_ZNSaISt10_List_nodeIiEEC2Ev
FNDA:5,_ZNSaISt10_List_nodeIiEEC2Ev
FN:156,_ZNSaIiEC2Ev
FNDA:0,_ZNSaIiEC2Ev
FN:156,_ZNSaINSt7__cxx114listIiSaIiEEEEC2Ev
FNDA:1,_ZNSaINSt7__cxx114listIiSaIiEEEEC2Ev
FN:159,_ZNSaISt10_List_nodeIiEEC2ERKS1_
FNDA:0,_ZNSaISt10_List_nodeIiEEC2ERKS1_
FN:159,_ZNSaImEC2ERKS_
FNDA:1,_ZNSaImEC2ERKS_
FN:159,_ZNSaINSt7__cxx114listIiSaIiEEEEC2ERKS3_
FNDA:0,_ZNSaINSt7__cxx114listIiSaIiEEEEC2ERKS3_
FN:169,_ZNSaIPiEC2IiEERKSaIT_E
FNDA:0,_ZNSaIPiEC2IiEERKSaIT_E
FN:169,_ZNSaISt10_List_nodeIiEEC2IiEERKSaIT_E
FNDA:0,_ZNSaISt10_List_nodeIiEEC2IiEERKSaIT_E
FN:169,_ZNSaIiEC2ISt10_List_nodeIiEEERKSaIT_E
FNDA:0,_ZNSaIiEC2ISt10_List_nodeIiEEERKSaIT_E
FN:169,_ZNSaImEC2IbEERKSaIT_E
FNDA:1,_ZNSaImEC2IbEERKSaIT_E
FN:174,_ZNSaImED2Ev
FNDA:2,_ZNSaImED2Ev
FN:174,_ZNSaIbED2Ev
FNDA:1,_ZNSaIbED2Ev
FN:174,_ZNSaINSt7__cxx114listIiSaIiEEEED2Ev
FNDA:1,_ZNSaINSt7__cxx114listIiSaIiEEEED2Ev
FN:174,_ZNSaIiED2Ev
FNDA:0,_ZNSaIiED2Ev
FN:174,_ZNSaISt10_List_nodeIiEED2Ev
FNDA:5,_ZNSaISt10_List_nodeIiEED2Ev
FN:174,_ZNSaIPiED2Ev
FNDA:0,_ZNSaIPiED2Ev
FN:290,_ZNSt11__alloc_neqISaISt10_List_nodeIiEELb1EE8_S_do_itERKS2_S5_
FNDA:0,_ZNSt11__alloc_neqISaISt10_List_nodeIiEELb1EE8_S_do_itERKS2_S5_
DA:156,5
DA:156,0
DA:156,1
DA:156,1
DA:159,0
DA:160,0
DA:159,1
DA:160,1
DA:159,0
DA:160,0
DA:169,0
DA:169,0
DA:169,0
DA:169,1
DA:174,0
DA:174,5
DA:174,2
DA:174,0
DA:174,1
DA:174,1
DA:290,0
DA:291,0
end_of_record
